target datalayout = "e-m:e-p270:32:32-p271:32:32-p272:64:64-i64:64-i128:128-f80:128-n8:16:32:64-S128"
target triple = "x86_64-pc-linux-gnu"

%struct.jag_prec = type { i8, i32, i8, i32, i32, i32, double, i32, ptr, double }

; Function Attrs: nounwind uwtable
define dso_local void @destroy_jag_prec(ptr noundef %0) #0 {
  %2 = alloca ptr, align 8
  %3 = alloca ptr, align 8
  %4 = alloca i32, align 4
  store ptr %0, ptr %2, align 8
  call void @llvm.lifetime.start.p0(i64 8, ptr %3) #10
  %5 = load ptr, ptr %2, align 8
  store ptr %5, ptr %3, align 8
  %6 = load ptr, ptr %3, align 8
  %7 = icmp ne ptr %6, null
  br i1 %7, label %9, label %8

8:                                                ; preds = %1
  store i32 1, ptr %4, align 4
  br label %12

9:                                                ; preds = %1
  %10 = load ptr, ptr %3, align 8
  %11 = getelementptr inbounds nuw %struct.jag_prec, ptr %10, i32 0, i32 8
  call void @slurm_xfree(ptr noundef %11)
  call void @slurm_xfree(ptr noundef %3)
  store i32 1, ptr %4, align 4
  br label %12

12:                                               ; preds = %9, %8
  call void @llvm.lifetime.end.p0(i64 8, ptr %3) #10
  ret void
}